; Function Attrs: mustprogress uwtable
define noundef i32 @_ZNK8proxygen11HTTPMessage16getIntQueryParamERKNSt7__cxx1112basic_stringIcSt11char_traitsIcESaIcEEE(ptr noundef nonnull align 8 dereferenceable(616) %this, ptr noundef nonnull align 8 dereferenceable(32) %name) local_unnamed_addr #2 align 2 {
entry:
  %call = tail call noundef nonnull align 8 dereferenceable(32) ptr @_ZNK8proxygen11HTTPMessage13getQueryParamERKNSt7__cxx1112basic_stringIcSt11char_traitsIcESaIcEEE(ptr noundef nonnull align 8 dereferenceable(616) %this, ptr noundef nonnull align 8 dereferenceable(32) %name)
  %call.i = tail call noundef ptr @_ZNKSt7__cxx1112basic_stringIcSt11char_traitsIcESaIcEE4dataEv(ptr noundef nonnull align 8 dereferenceable(32) %call) #23
  %call1.i = tail call noundef i64 @_ZNKSt7__cxx1112basic_stringIcSt11char_traitsIcESaIcEE4sizeEv(ptr noundef nonnull align 8 dereferenceable(32) %call) #23
  %add.ptr.i.i = getelementptr inbounds i8, ptr %call.i, i64 %call1.i
  %call2.i = tail call noundef i32 @_ZN5folly2toIiEENSt9enable_ifIXntsr3std7is_sameINS_5RangeIPKcEET_EE5valueES6_E4typeES5_(ptr %call.i, ptr %add.ptr.i.i)
  ret i32 %call2.i
}